target datalayout = "e-m:e-p270:32:32-p271:32:32-p272:64:64-i64:64-i128:128-f80:128-n8:16:32:64-S128"
target triple = "x86_64-pc-linux-gnu"

%struct.ASPK = type { i32, i32, [58 x i32], [4 x %struct.DICT_HELPER], ptr, ptr, ptr, [4 x [24 x i32]], [4 x [24 x i32]], i32, [758 x i8], [19 x i8] }
%struct.DICT_HELPER = type { ptr, ptr, i32 }

; Function Attrs: nounwind uwtable
define internal i32 @readstream(ptr noundef %0) #0 {
  %2 = alloca i32, align 4
  %3 = alloca ptr, align 8
  store ptr %0, ptr %3, align 8
  br label %4

4:                                                ; preds = %18, %1
  %5 = load ptr, ptr %3, align 8
  %6 = getelementptr inbounds %struct.ASPK, ptr %5, i32 0, i32 0
  %7 = load i32, ptr %6, align 8
  %8 = icmp uge i32 %7, 8
  br i1 %8, label %9, label %39

9:                                                ; preds = %4
  %10 = load ptr, ptr %3, align 8
  %11 = getelementptr inbounds %struct.ASPK, ptr %10, i32 0, i32 4
  %12 = load ptr, ptr %11, align 8
  %13 = load ptr, ptr %3, align 8
  %14 = getelementptr inbounds %struct.ASPK, ptr %13, i32 0, i32 5
  %15 = load ptr, ptr %14, align 8
  %16 = icmp uge ptr %12, %15
  br i1 %16, label %17, label %18

17:                                               ; preds = %9
  store i32 0, ptr %2, align 4
  br label %40

18:                                               ; preds = %9
  %19 = load ptr, ptr %3, align 8
  %20 = getelementptr inbounds %struct.ASPK, ptr %19, i32 0, i32 1
  %21 = load i32, ptr %20, align 4
  %22 = shl i32 %21, 8
  %23 = load ptr, ptr %3, align 8
  %24 = getelementptr inbounds %struct.ASPK, ptr %23, i32 0, i32 4
  %25 = load ptr, ptr %24, align 8
  %26 = load i8, ptr %25, align 1
  %27 = zext i8 %26 to i32
  %28 = or i32 %22, %27
  %29 = load ptr, ptr %3, align 8
  %30 = getelementptr inbounds %struct.ASPK, ptr %29, i32 0, i32 1
  store i32 %28, ptr %30, align 4
  %31 = load ptr, ptr %3, align 8
  %32 = getelementptr inbounds %struct.ASPK, ptr %31, i32 0, i32 4
  %33 = load ptr, ptr %32, align 8
  %34 = getelementptr inbounds i8, ptr %33, i32 1
  store ptr %34, ptr %32, align 8
  %35 = load ptr, ptr %3, align 8
  %36 = getelementptr inbounds %struct.ASPK, ptr %35, i32 0, i32 0
  %37 = load i32, ptr %36, align 8
  %38 = sub i32 %37, 8
  store i32 %38, ptr %36, align 8
  br label %4

39:                                               ; preds = %4
  store i32 1, ptr %2, align 4
  br label %40

40:                                               ; preds = %39, %17
  %41 = load i32, ptr %2, align 4
  ret i32 %41
}

; Function Attrs: nounwind uwtable
define internal i32 @getdec(ptr noundef %0, i8 noundef zeroext %1, ptr noundef %2) #0 {
  %4 = alloca i32, align 4
  %5 = alloca ptr, align 8
  %6 = alloca i8, align 1
  %7 = alloca ptr, align 8
  %8 = alloca i32, align 4
  %9 = alloca i8, align 1
  %10 = alloca ptr, align 8
  %11 = alloca ptr, align 8
  store ptr %0, ptr %5, align 8
  store i8 %1, ptr %6, align 1
  store ptr %2, ptr %7, align 8
  %12 = load ptr, ptr %5, align 8
  %13 = getelementptr inbounds %struct.ASPK, ptr %12, i32 0, i32 7
  %14 = load i8, ptr %6, align 1
  %15 = zext i8 %14 to i64
  %16 = getelementptr inbounds [4 x [24 x i32]], ptr %13, i64 0, i64 %15
  %17 = getelementptr inbounds [24 x i32], ptr %16, i64 0, i64 0
  store ptr %17, ptr %10, align 8
  %18 = load ptr, ptr %5, align 8
  %19 = getelementptr inbounds %struct.ASPK, ptr %18, i32 0, i32 8
  %20 = load i8, ptr %6, align 1
  %21 = zext i8 %20 to i64
  %22 = getelementptr inbounds [4 x [24 x i32]], ptr %19, i64 0, i64 %21
  %23 = getelementptr inbounds [24 x i32], ptr %22, i64 0, i64 0
  store ptr %23, ptr %11, align 8
  %24 = load ptr, ptr %7, align 8
  store i32 1, ptr %24, align 4
  %25 = load ptr, ptr %5, align 8
  %26 = call i32 @readstream(ptr noundef %25)
  %27 = icmp ne i32 %26, 0
  br i1 %27, label %29, label %28

28:                                               ; preds = %3
  store i32 0, ptr %4, align 4
  br label %168

29:                                               ; preds = %3
  %30 = load ptr, ptr %5, align 8
  %31 = getelementptr inbounds %struct.ASPK, ptr %30, i32 0, i32 1
  %32 = load i32, ptr %31, align 4
  %33 = load ptr, ptr %5, align 8
  %34 = getelementptr inbounds %struct.ASPK, ptr %33, i32 0, i32 0
  %35 = load i32, ptr %34, align 8
  %36 = sub i32 8, %35
  %37 = lshr i32 %32, %36
  %38 = and i32 %37, 16776704
  store i32 %38, ptr %8, align 4
  %39 = load i32, ptr %8, align 4
  %40 = load ptr, ptr %10, align 8
  %41 = getelementptr inbounds i32, ptr %40, i64 8
  %42 = load i32, ptr %41, align 4
  %43 = icmp ult i32 %39, %42
  br i1 %43, label %44, label %69

44:                                               ; preds = %29
  %45 = load i32, ptr %8, align 4
  %46 = lshr i32 %45, 16
  %47 = icmp uge i32 %46, 256
  br i1 %47, label %48, label %49

48:                                               ; preds = %44
  store i32 0, ptr %4, align 4
  br label %168

49:                                               ; preds = %44
  %50 = load ptr, ptr %5, align 8
  %51 = getelementptr inbounds %struct.ASPK, ptr %50, i32 0, i32 3
  %52 = load i8, ptr %6, align 1
  %53 = zext i8 %52 to i64
  %54 = getelementptr inbounds [4 x %struct.DICT_HELPER], ptr %51, i64 0, i64 %53
  %55 = getelementptr inbounds %struct.DICT_HELPER, ptr %54, i32 0, i32 1
  %56 = load ptr, ptr %55, align 8
  %57 = load i32, ptr %8, align 4
  %58 = lshr i32 %57, 16
  %59 = zext i32 %58 to i64
  %60 = getelementptr inbounds i8, ptr %56, i64 %59
  %61 = load i8, ptr %60, align 1
  store i8 %61, ptr %9, align 1
  %62 = icmp ne i8 %61, 0
  br i1 %62, label %63, label %67

63:                                               ; preds = %49
  %64 = load i8, ptr %9, align 1
  %65 = zext i8 %64 to i32
  %66 = icmp sge i32 %65, 24
  br i1 %66, label %67, label %68

67:                                               ; preds = %63, %49
  store i32 0, ptr %4, align 4
  br label %168

68:                                               ; preds = %63
  br label %118

69:                                               ; preds = %29
  %70 = load i32, ptr %8, align 4
  %71 = load ptr, ptr %10, align 8
  %72 = getelementptr inbounds i32, ptr %71, i64 10
  %73 = load i32, ptr %72, align 4
  %74 = icmp ult i32 %70, %73
  br i1 %74, label %75, label %84

75:                                               ; preds = %69
  %76 = load i32, ptr %8, align 4
  %77 = load ptr, ptr %10, align 8
  %78 = getelementptr inbounds i32, ptr %77, i64 9
  %79 = load i32, ptr %78, align 4
  %80 = icmp ult i32 %76, %79
  br i1 %80, label %81, label %82

81:                                               ; preds = %75
  store i8 9, ptr %9, align 1
  br label %83

82:                                               ; preds = %75
  store i8 10, ptr %9, align 1
  br label %83

83:                                               ; preds = %82, %81
  br label %117

84:                                               ; preds = %69
  %85 = load i32, ptr %8, align 4
  %86 = load ptr, ptr %10, align 8
  %87 = getelementptr inbounds i32, ptr %86, i64 11
  %88 = load i32, ptr %87, align 4
  %89 = icmp ult i32 %85, %88
  br i1 %89, label %90, label %91

90:                                               ; preds = %84
  store i8 11, ptr %9, align 1
  br label %116

91:                                               ; preds = %84
  %92 = load i32, ptr %8, align 4
  %93 = load ptr, ptr %10, align 8
  %94 = getelementptr inbounds i32, ptr %93, i64 12
  %95 = load i32, ptr %94, align 4
  %96 = icmp ult i32 %92, %95
  br i1 %96, label %97, label %98

97:                                               ; preds = %91
  store i8 12, ptr %9, align 1
  br label %115

98:                                               ; preds = %91
  %99 = load i32, ptr %8, align 4
  %100 = load ptr, ptr %10, align 8
  %101 = getelementptr inbounds i32, ptr %100, i64 13
  %102 = load i32, ptr %101, align 4
  %103 = icmp ult i32 %99, %102
  br i1 %103, label %104, label %105

104:                                              ; preds = %98
  store i8 13, ptr %9, align 1
  br label %114

105:                                              ; preds = %98
  %106 = load i32, ptr %8, align 4
  %107 = load ptr, ptr %10, align 8
  %108 = getelementptr inbounds i32, ptr %107, i64 14
  %109 = load i32, ptr %108, align 4
  %110 = icmp ult i32 %106, %109
  br i1 %110, label %111, label %112

111:                                              ; preds = %105
  store i8 14, ptr %9, align 1
  br label %113

112:                                              ; preds = %105
  store i8 15, ptr %9, align 1
  br label %113

113:                                              ; preds = %112, %111
  br label %114

114:                                              ; preds = %113, %104
  br label %115

115:                                              ; preds = %114, %97
  br label %116

116:                                              ; preds = %115, %90
  br label %117

117:                                              ; preds = %116, %83
  br label %118

118:                                              ; preds = %117, %68
  %119 = load i8, ptr %9, align 1
  %120 = zext i8 %119 to i32
  %121 = load ptr, ptr %5, align 8
  %122 = getelementptr inbounds %struct.ASPK, ptr %121, i32 0, i32 0
  %123 = load i32, ptr %122, align 8
  %124 = add i32 %123, %120
  store i32 %124, ptr %122, align 8
  %125 = load i32, ptr %8, align 4
  %126 = load ptr, ptr %10, align 8
  %127 = load i8, ptr %9, align 1
  %128 = zext i8 %127 to i32
  %129 = sub nsw i32 %128, 1
  %130 = sext i32 %129 to i64
  %131 = getelementptr inbounds i32, ptr %126, i64 %130
  %132 = load i32, ptr %131, align 4
  %133 = sub i32 %125, %132
  %134 = load i8, ptr %9, align 1
  %135 = zext i8 %134 to i32
  %136 = sub nsw i32 24, %135
  %137 = lshr i32 %133, %136
  %138 = load ptr, ptr %11, align 8
  %139 = load i8, ptr %9, align 1
  %140 = zext i8 %139 to i64
  %141 = getelementptr inbounds i32, ptr %138, i64 %140
  %142 = load i32, ptr %141, align 4
  %143 = add i32 %137, %142
  store i32 %143, ptr %8, align 4
  %144 = load i32, ptr %8, align 4
  %145 = load ptr, ptr %5, align 8
  %146 = getelementptr inbounds %struct.ASPK, ptr %145, i32 0, i32 3
  %147 = load i8, ptr %6, align 1
  %148 = zext i8 %147 to i64
  %149 = getelementptr inbounds [4 x %struct.DICT_HELPER], ptr %146, i64 0, i64 %148
  %150 = getelementptr inbounds %struct.DICT_HELPER, ptr %149, i32 0, i32 2
  %151 = load i32, ptr %150, align 8
  %152 = icmp uge i32 %144, %151
  br i1 %152, label %153, label %154

153:                                              ; preds = %118
  store i32 0, ptr %4, align 4
  br label %168

154:                                              ; preds = %118
  %155 = load ptr, ptr %5, align 8
  %156 = getelementptr inbounds %struct.ASPK, ptr %155, i32 0, i32 3
  %157 = load i8, ptr %6, align 1
  %158 = zext i8 %157 to i64
  %159 = getelementptr inbounds [4 x %struct.DICT_HELPER], ptr %156, i64 0, i64 %158
  %160 = getelementptr inbounds %struct.DICT_HELPER, ptr %159, i32 0, i32 0
  %161 = load ptr, ptr %160, align 8
  %162 = load i32, ptr %8, align 4
  %163 = zext i32 %162 to i64
  %164 = getelementptr inbounds i32, ptr %161, i64 %163
  %165 = load i32, ptr %164, align 4
  store i32 %165, ptr %8, align 4
  %166 = load ptr, ptr %7, align 8
  store i32 0, ptr %166, align 4
  %167 = load i32, ptr %8, align 4
  store i32 %167, ptr %4, align 4
  br label %168

168:                                              ; preds = %154, %153, %67, %48, %28
  %169 = load i32, ptr %4, align 4
  ret i32 %169
}