; Function Attrs: nofree norecurse nosync nounwind memory(read, argmem: readwrite, inaccessiblemem: none) uwtable
define internal fastcc i32 @getdec(ptr nocapture noundef %0, i8 noundef zeroext %1, ptr nocapture noundef writeonly %2) unnamed_addr #8 {
  %4 = getelementptr inbounds i8, ptr %0, i64 360
  %5 = zext nneg i8 %1 to i64
  %6 = getelementptr inbounds [4 x [24 x i32]], ptr %4, i64 0, i64 %5
  %7 = getelementptr inbounds i8, ptr %0, i64 744
  %8 = getelementptr inbounds [4 x [24 x i32]], ptr %7, i64 0, i64 %5
  store i32 1, ptr %2, align 4
  %.pr.i = load i32, ptr %0, align 8
  %9 = getelementptr inbounds i8, ptr %0, i64 336
  %10 = icmp ugt i32 %.pr.i, 7
  br i1 %10, label %.lr.ph.i, label %..loopexit_crit_edge

..loopexit_crit_edge:                             ; preds = %3
  %.phi.trans.insert = getelementptr inbounds i8, ptr %0, i64 4
  %.pre = load i32, ptr %.phi.trans.insert, align 4
  br label %.loopexit

.lr.ph.i:                                         ; preds = %3
  %11 = getelementptr inbounds i8, ptr %0, i64 344
  %12 = load ptr, ptr %11, align 8
  %13 = getelementptr inbounds i8, ptr %0, i64 4
  %.promoted.i = load ptr, ptr %9, align 8
  br label %14

14:                                               ; preds = %17, %.lr.ph.i
  %15 = phi ptr [ %.promoted.i, %.lr.ph.i ], [ %23, %17 ]
  %16 = phi i32 [ %.pr.i, %.lr.ph.i ], [ %24, %17 ]
  %.not.i = icmp ult ptr %15, %12
  br i1 %.not.i, label %17, label %readstream.exit

17:                                               ; preds = %14
  %18 = load i32, ptr %13, align 4
  %19 = shl i32 %18, 8
  %20 = load i8, ptr %15, align 1
  %21 = zext i8 %20 to i32
  %22 = or disjoint i32 %19, %21
  store i32 %22, ptr %13, align 4
  %23 = getelementptr inbounds i8, ptr %15, i64 1
  store ptr %23, ptr %9, align 8
  %24 = add i32 %16, -8
  store i32 %24, ptr %0, align 8
  %25 = icmp ugt i32 %24, 7
  br i1 %25, label %14, label %.loopexit

.loopexit:                                        ; preds = %17, %..loopexit_crit_edge
  %26 = phi i32 [ %.pr.i, %..loopexit_crit_edge ], [ %24, %17 ]
  %27 = phi i32 [ %.pre, %..loopexit_crit_edge ], [ %22, %17 ]
  %28 = sub nuw nsw i32 8, %26
  %29 = lshr i32 %27, %28
  %30 = and i32 %29, 16776704
  %31 = getelementptr inbounds i8, ptr %6, i64 32
  %32 = load i32, ptr %31, align 4
  %33 = icmp ult i32 %30, %32
  br i1 %33, label %34, label %43

34:                                               ; preds = %.loopexit
  %35 = lshr i32 %30, 16
  %36 = getelementptr inbounds i8, ptr %0, i64 240
  %37 = getelementptr inbounds [4 x %struct.DICT_HELPER], ptr %36, i64 0, i64 %5, i32 1
  %38 = load ptr, ptr %37, align 8
  %39 = zext nneg i32 %35 to i64
  %40 = getelementptr inbounds i8, ptr %38, i64 %39
  %41 = load i8, ptr %40, align 1
  %42 = add i8 %41, -24
  %or.cond = icmp ult i8 %42, -23
  br i1 %or.cond, label %readstream.exit, label %67

43:                                               ; preds = %.loopexit
  %44 = getelementptr inbounds i8, ptr %6, i64 40
  %45 = load i32, ptr %44, align 4
  %46 = icmp ult i32 %30, %45
  br i1 %46, label %47, label %51

47:                                               ; preds = %43
  %48 = getelementptr inbounds i8, ptr %6, i64 36
  %49 = load i32, ptr %48, align 4
  %50 = icmp ult i32 %30, %49
  %. = select i1 %50, i8 9, i8 10
  br label %67

51:                                               ; preds = %43
  %52 = getelementptr inbounds i8, ptr %6, i64 44
  %53 = load i32, ptr %52, align 4
  %54 = icmp ult i32 %30, %53
  br i1 %54, label %67, label %55

55:                                               ; preds = %51
  %56 = getelementptr inbounds i8, ptr %6, i64 48
  %57 = load i32, ptr %56, align 4
  %58 = icmp ult i32 %30, %57
  br i1 %58, label %67, label %59

59:                                               ; preds = %55
  %60 = getelementptr inbounds i8, ptr %6, i64 52
  %61 = load i32, ptr %60, align 4
  %62 = icmp ult i32 %30, %61
  br i1 %62, label %67, label %63

63:                                               ; preds = %59
  %64 = getelementptr inbounds i8, ptr %6, i64 56
  %65 = load i32, ptr %64, align 4
  %66 = icmp ult i32 %30, %65
  %.51 = select i1 %66, i8 14, i8 15
  br label %67

67:                                               ; preds = %63, %59, %55, %51, %47, %34
  %.045 = phi i8 [ %41, %34 ], [ %., %47 ], [ 11, %51 ], [ 12, %55 ], [ 13, %59 ], [ %.51, %63 ]
  %68 = zext nneg i8 %.045 to i32
  %69 = add nuw nsw i32 %26, %68
  store i32 %69, ptr %0, align 8
  %70 = zext nneg i8 %.045 to i64
  %71 = getelementptr i32, ptr %6, i64 %70
  %72 = getelementptr i8, ptr %71, i64 -4
  %73 = load i32, ptr %72, align 4
  %74 = sub i32 %30, %73
  %75 = sub nuw nsw i32 24, %68
  %76 = lshr i32 %74, %75
  %77 = getelementptr inbounds i32, ptr %8, i64 %70
  %78 = load i32, ptr %77, align 4
  %79 = add i32 %76, %78
  %80 = getelementptr inbounds i8, ptr %0, i64 240
  %81 = getelementptr inbounds [4 x %struct.DICT_HELPER], ptr %80, i64 0, i64 %5
  %82 = getelementptr inbounds i8, ptr %81, i64 16
  %83 = load i32, ptr %82, align 8
  %.not50 = icmp ult i32 %79, %83
  br i1 %.not50, label %84, label %readstream.exit

84:                                               ; preds = %67
  %85 = load ptr, ptr %81, align 8
  %86 = zext i32 %79 to i64
  %87 = getelementptr inbounds i32, ptr %85, i64 %86
  %88 = load i32, ptr %87, align 4
  store i32 0, ptr %2, align 4
  br label %readstream.exit

readstream.exit:                                  ; preds = %14, %67, %34, %84
  %.0 = phi i32 [ %88, %84 ], [ 0, %34 ], [ 0, %67 ], [ 0, %14 ]
  ret i32 %.0
}